target datalayout = "e-m:e-p270:32:32-p271:32:32-p272:64:64-i64:64-i128:128-f80:128-n8:16:32:64-S128"
target triple = "x86_64-pc-linux-gnu"

; Function Attrs: nounwind uwtable
define internal ptr @cdf_grow_info(ptr noundef %0, ptr noundef %1, i64 noundef %2) #0 {
  %4 = alloca ptr, align 8
  %5 = alloca ptr, align 8
  %6 = alloca ptr, align 8
  %7 = alloca i64, align 8
  %8 = alloca ptr, align 8
  %9 = alloca i64, align 8
  %10 = alloca i32, align 4
  store ptr %0, ptr %5, align 8, !tbaa !16
  store ptr %1, ptr %6, align 8, !tbaa !63
  store i64 %2, ptr %7, align 8, !tbaa !14
  call void @llvm.lifetime.start.p0(i64 8, ptr %8) #13
  call void @llvm.lifetime.start.p0(i64 8, ptr %9) #13
  %11 = load ptr, ptr %6, align 8, !tbaa !63
  %12 = load i64, ptr %11, align 8, !tbaa !14
  %13 = load i64, ptr %7, align 8, !tbaa !14
  %14 = add i64 %12, %13
  store i64 %14, ptr %9, align 8, !tbaa !14
  %15 = load i64, ptr %9, align 8, !tbaa !14
  %16 = icmp ugt i64 %15, 2796202
  br i1 %16, label %17, label %18

17:                                               ; preds = %3
  br label %33

18:                                               ; preds = %3
  %19 = load ptr, ptr %5, align 8, !tbaa !16
  %20 = load ptr, ptr %19, align 8, !tbaa !16
  %21 = load i64, ptr %9, align 8, !tbaa !14
  %22 = mul i64 %21, 24
  %23 = call ptr @_erealloc(ptr noundef %20, i64 noundef %22) #18
  store ptr %23, ptr %8, align 8, !tbaa !16
  %24 = load ptr, ptr %8, align 8, !tbaa !16
  %25 = icmp eq ptr %24, null
  br i1 %25, label %26, label %27

26:                                               ; preds = %18
  br label %33

27:                                               ; preds = %18
  %28 = load ptr, ptr %8, align 8, !tbaa !16
  %29 = load ptr, ptr %5, align 8, !tbaa !16
  store ptr %28, ptr %29, align 8, !tbaa !16
  %30 = load i64, ptr %9, align 8, !tbaa !14
  %31 = load ptr, ptr %6, align 8, !tbaa !63
  store i64 %30, ptr %31, align 8, !tbaa !14
  %32 = load ptr, ptr %8, align 8, !tbaa !16
  store ptr %32, ptr %4, align 8
  store i32 1, ptr %10, align 4
  br label %38

33:                                               ; preds = %26, %17
  %34 = load ptr, ptr %5, align 8, !tbaa !16
  %35 = load ptr, ptr %34, align 8, !tbaa !16
  call void @_efree(ptr noundef %35)
  %36 = load ptr, ptr %6, align 8, !tbaa !63
  store i64 0, ptr %36, align 8, !tbaa !14
  %37 = load ptr, ptr %5, align 8, !tbaa !16
  store ptr null, ptr %37, align 8, !tbaa !16
  store ptr null, ptr %4, align 8
  store i32 1, ptr %10, align 4
  br label %38

38:                                               ; preds = %33, %27
  call void @llvm.lifetime.end.p0(i64 8, ptr %9) #13
  call void @llvm.lifetime.end.p0(i64 8, ptr %8) #13
  %39 = load ptr, ptr %4, align 8
  ret ptr %39
}