; Function Attrs: nounwind uwtable
define internal fastcc ptr @cdf_grow_info(ptr noundef captures(none) %0, ptr noundef captures(none) %1, i64 noundef range(i64 0, 2796203) %2) unnamed_addr #7 {
  %4 = load i64, ptr %1, align 8, !tbaa !47
  %5 = add i64 %4, %2
  %6 = icmp ugt i64 %5, 2796202
  br i1 %6, label %13, label %7

7:                                                ; preds = %3
  %8 = load ptr, ptr %0, align 8, !tbaa !37
  %9 = mul nuw nsw i64 %5, 24
  %10 = tail call ptr @_erealloc(ptr noundef %8, i64 noundef %9) #26
  %11 = icmp eq ptr %10, null
  br i1 %11, label %13, label %12

12:                                               ; preds = %7
  store ptr %10, ptr %0, align 8, !tbaa !37
  store i64 %5, ptr %1, align 8, !tbaa !47
  br label %15

13:                                               ; preds = %7, %3
  %14 = load ptr, ptr %0, align 8, !tbaa !37
  tail call void @_efree(ptr noundef %14) #21
  store i64 0, ptr %1, align 8, !tbaa !47
  store ptr null, ptr %0, align 8, !tbaa !37
  br label %15

15:                                               ; preds = %13, %12
  %.0 = phi ptr [ null, %13 ], [ %10, %12 ]
  ret ptr %.0
}